target datalayout = "e-m:e-p270:32:32-p271:32:32-p272:64:64-i64:64-i128:128-f80:128-n8:16:32:64-S128"
target triple = "x86_64-unknown-linux-gnu"

%"class.arrow::compute::KeyColumnArray" = type { [3 x ptr], [3 x ptr], %"struct.arrow::compute::KeyColumnMetadata", i64, [2 x i32] }
%"struct.arrow::compute::KeyColumnMetadata" = type { i8, i8, i32 }
%"class.arrow::Result" = type { %"class.arrow::Status", %"class.arrow::internal::AlignedStorage" }
%"class.arrow::Status" = type { ptr }
%"class.arrow::internal::AlignedStorage" = type { %"union.std::aligned_storage<8, 4>::type" }
%"union.std::aligned_storage<8, 4>::type" = type { [8 x i8] }
%"class.std::__shared_count" = type { ptr }
%"class.std::shared_ptr" = type { %"class.std::__shared_ptr" }
%"class.std::__shared_ptr" = type { ptr, %"class.std::__shared_count" }
%"class.std::shared_ptr.30" = type { %"class.std::__shared_ptr.31" }
%"class.std::__shared_ptr.31" = type { ptr, %"class.std::__shared_count" }
%"class.arrow::Buffer" = type { ptr, i8, i8, ptr, i64, i64, i8, %"class.std::shared_ptr.30", %"class.std::shared_ptr.33" }
%"class.std::shared_ptr.33" = type { %"class.std::__shared_ptr.34" }
%"class.std::__shared_ptr.34" = type { ptr, %"class.std::__shared_count" }
%"class.arrow::compute::ResizableArrayData" = type { i32, %"class.std::shared_ptr", ptr, i32, i32, i32, [3 x %"class.std::shared_ptr.72"] }
%"class.std::shared_ptr.72" = type { %"class.std::__shared_ptr.73" }
%"class.std::__shared_ptr.73" = type { ptr, %"class.std::__shared_count" }

@_ZN5arrow7compute14KeyColumnArrayC1ERKNS0_17KeyColumnMetadataElPhS5_S5_ii = unnamed_addr alias void (ptr, ptr, i64, ptr, ptr, ptr, i32, i32), ptr @_ZN5arrow7compute14KeyColumnArrayC2ERKNS0_17KeyColumnMetadataElPhS5_S5_ii

; Function Attrs: mustprogress nounwind uwtable
define linkonce_odr noundef ptr @_ZSt7launderIN5arrow7compute17KeyColumnMetadataEEPT_S4_(ptr noundef %__p) #0 comdat {
entry:
  %__p.addr = alloca ptr, align 8
  store ptr %__p, ptr %__p.addr, align 8
  %0 = load ptr, ptr %__p.addr, align 8
  ret ptr %0
}

; Function Attrs: mustprogress nounwind uwtable
define linkonce_odr noundef ptr @_ZNKSt12__shared_ptrIN5arrow15ResizableBufferELN9__gnu_cxx12_Lock_policyE2EE3getEv(ptr noundef nonnull align 8 dereferenceable(16) %this) #0 comdat align 2 {
entry:
  %this.addr = alloca ptr, align 8
  store ptr %this, ptr %this.addr, align 8
  %this1 = load ptr, ptr %this.addr, align 8
  %_M_ptr = getelementptr inbounds %"class.std::__shared_ptr.73", ptr %this1, i32 0, i32 0
  %0 = load ptr, ptr %_M_ptr, align 8
  ret ptr %0
}

; Function Attrs: mustprogress nounwind uwtable
define linkonce_odr noundef ptr @_ZN5arrow8internal14AlignedStorageINS_7compute17KeyColumnMetadataEE3getEv(ptr noundef nonnull align 4 dereferenceable(8) %this) #0 comdat align 2 {
entry:
  %this.addr = alloca ptr, align 8
  store ptr %this, ptr %this.addr, align 8
  %this1 = load ptr, ptr %this.addr, align 8
  %data_ = getelementptr inbounds %"class.arrow::internal::AlignedStorage", ptr %this1, i32 0, i32 0
  %call = call noundef ptr @_ZSt7launderIN5arrow7compute17KeyColumnMetadataEEPT_S4_(ptr noundef %data_) #11
  ret ptr %call
}

; Function Attrs: mustprogress nounwind uwtable
define linkonce_odr noundef zeroext i1 @_ZNK5arrow6Status2okEv(ptr noundef nonnull align 8 dereferenceable(8) %this) #0 comdat align 2 {
entry:
  %this.addr = alloca ptr, align 8
  store ptr %this, ptr %this.addr, align 8
  %this1 = load ptr, ptr %this.addr, align 8
  %state_ = getelementptr inbounds %"class.arrow::Status", ptr %this1, i32 0, i32 0
  %0 = load ptr, ptr %state_, align 8
  %cmp = icmp eq ptr %0, null
  ret i1 %cmp
}

; Function Attrs: mustprogress nounwind uwtable
define linkonce_odr noundef ptr @_ZNKSt19__shared_ptr_accessIN5arrow15ResizableBufferELN9__gnu_cxx12_Lock_policyE2ELb0ELb0EE6_M_getEv(ptr noundef nonnull align 1 dereferenceable(1) %this) #0 comdat align 2 {
entry:
  %this.addr = alloca ptr, align 8
  store ptr %this, ptr %this.addr, align 8
  %this1 = load ptr, ptr %this.addr, align 8
  %call = call noundef ptr @_ZNKSt12__shared_ptrIN5arrow15ResizableBufferELN9__gnu_cxx12_Lock_policyE2EE3getEv(ptr noundef nonnull align 8 dereferenceable(16) %this1) #11
  ret ptr %call
}

; Function Attrs: mustprogress nounwind uwtable
define linkonce_odr i64 @_ZN5arrow6ResultINS_7compute17KeyColumnMetadataEE15MoveValueUnsafeEv(ptr noundef nonnull align 8 dereferenceable(16) %this) #0 comdat align 2 {
entry:
  %retval = alloca %"struct.arrow::compute::KeyColumnMetadata", align 4
  %this.addr = alloca ptr, align 8
  store ptr %this, ptr %this.addr, align 8
  %this1 = load ptr, ptr %this.addr, align 8
  %storage_ = getelementptr inbounds %"class.arrow::Result", ptr %this1, i32 0, i32 1
  %call = call noundef ptr @_ZN5arrow8internal14AlignedStorageINS_7compute17KeyColumnMetadataEE3getEv(ptr noundef nonnull align 4 dereferenceable(8) %storage_) #11
  call void @llvm.memcpy.p0.p0.i64(ptr align 4 %retval, ptr align 4 %call, i64 8, i1 false)
  %0 = load i64, ptr %retval, align 4
  ret i64 %0
}

; Function Attrs: mustprogress uwtable
define linkonce_odr noundef zeroext i1 @_ZNK5arrow6ResultINS_7compute17KeyColumnMetadataEE2okEv(ptr noundef nonnull align 8 dereferenceable(16) %this) #2 comdat align 2 {
entry:
  %this.addr = alloca ptr, align 8
  store ptr %this, ptr %this.addr, align 8
  %this1 = load ptr, ptr %this.addr, align 8
  %status_ = getelementptr inbounds %"class.arrow::Result", ptr %this1, i32 0, i32 0
  %call = call noundef zeroext i1 @_ZNK5arrow6Status2okEv(ptr noundef nonnull align 8 dereferenceable(8) %status_)
  ret i1 %call
}

; Function Attrs: mustprogress nounwind uwtable
define linkonce_odr noundef ptr @_ZN5arrow6Buffer12mutable_dataEv(ptr noundef nonnull align 8 dereferenceable(80) %this) #0 comdat align 2 {
entry:
  %this.addr = alloca ptr, align 8
  store ptr %this, ptr %this.addr, align 8
  %this1 = load ptr, ptr %this.addr, align 8
  %is_cpu_ = getelementptr inbounds %"class.arrow::Buffer", ptr %this1, i32 0, i32 2
  %0 = load i8, ptr %is_cpu_, align 1
  %tobool = trunc i8 %0 to i1
  br i1 %tobool, label %land.rhs, label %land.end

land.rhs:                                         ; preds = %entry
  %is_mutable_ = getelementptr inbounds %"class.arrow::Buffer", ptr %this1, i32 0, i32 1
  %1 = load i8, ptr %is_mutable_, align 8
  %tobool2 = trunc i8 %1 to i1
  br label %land.end

land.end:                                         ; preds = %land.rhs, %entry
  %2 = phi i1 [ false, %entry ], [ %tobool2, %land.rhs ]
  %lnot = xor i1 %2, true
  %lnot3 = xor i1 %lnot, true
  br i1 %lnot3, label %cond.true, label %cond.false

cond.true:                                        ; preds = %land.end
  %data_ = getelementptr inbounds %"class.arrow::Buffer", ptr %this1, i32 0, i32 3
  %3 = load ptr, ptr %data_, align 8
  br label %cond.end

cond.false:                                       ; preds = %land.end
  br label %cond.end

cond.end:                                         ; preds = %cond.false, %cond.true
  %cond = phi ptr [ %3, %cond.true ], [ null, %cond.false ]
  ret ptr %cond
}

; Function Attrs: mustprogress nounwind uwtable
define linkonce_odr noundef ptr @_ZNKSt19__shared_ptr_accessIN5arrow15ResizableBufferELN9__gnu_cxx12_Lock_policyE2ELb0ELb0EEptEv(ptr noundef nonnull align 1 dereferenceable(1) %this) #0 comdat align 2 {
entry:
  %this.addr = alloca ptr, align 8
  store ptr %this, ptr %this.addr, align 8
  %this1 = load ptr, ptr %this.addr, align 8
  %call = call noundef ptr @_ZNKSt19__shared_ptr_accessIN5arrow15ResizableBufferELN9__gnu_cxx12_Lock_policyE2ELb0ELb0EE6_M_getEv(ptr noundef nonnull align 1 dereferenceable(1) %this1) #11
  ret ptr %call
}

; Function Attrs: mustprogress uwtable
define linkonce_odr i64 @_ZNO5arrow6ResultINS_7compute17KeyColumnMetadataEE10ValueOrDieEv(ptr noundef nonnull align 8 dereferenceable(16) %this) #2 comdat align 2 {
entry:
  %retval = alloca %"struct.arrow::compute::KeyColumnMetadata", align 4
  %this.addr = alloca ptr, align 8
  store ptr %this, ptr %this.addr, align 8
  %this1 = load ptr, ptr %this.addr, align 8
  %call = call noundef zeroext i1 @_ZNK5arrow6ResultINS_7compute17KeyColumnMetadataEE2okEv(ptr noundef nonnull align 8 dereferenceable(16) %this1)
  %lnot = xor i1 %call, true
  %lnot2 = xor i1 %lnot, true
  %lnot3 = xor i1 %lnot2, true
  br i1 %lnot3, label %if.then, label %if.end

if.then:                                          ; preds = %entry
  %status_ = getelementptr inbounds %"class.arrow::Result", ptr %this1, i32 0, i32 0
  call void @_ZN5arrow8internal17InvalidValueOrDieERKNS_6StatusE(ptr noundef nonnull align 8 dereferenceable(8) %status_)
  br label %if.end

if.end:                                           ; preds = %if.then, %entry
  %call4 = call i64 @_ZN5arrow6ResultINS_7compute17KeyColumnMetadataEE15MoveValueUnsafeEv(ptr noundef nonnull align 8 dereferenceable(16) %this1)
  store i64 %call4, ptr %retval, align 4
  %0 = load i64, ptr %retval, align 4
  ret i64 %0
}

; Function Attrs: mustprogress uwtable
define void @_ZNK5arrow7compute18ResizableArrayData12column_arrayEv(ptr noalias sret(%"class.arrow::compute::KeyColumnArray") align 8 %agg.result, ptr noundef nonnull align 8 dereferenceable(96) %this) #2 align 2 personality ptr @__gxx_personality_v0 {
entry:
  %this.addr = alloca ptr, align 8
  %column_metadata = alloca %"struct.arrow::compute::KeyColumnMetadata", align 4
  %ref.tmp = alloca %"struct.arrow::compute::KeyColumnMetadata", align 4
  %ref.tmp2 = alloca %"class.arrow::Result", align 8
  %exn.slot = alloca ptr, align 8
  %ehselector.slot = alloca i32, align 4
  store ptr %this, ptr %this.addr, align 8
  %this1 = load ptr, ptr %this.addr, align 8
  %data_type_ = getelementptr inbounds %"class.arrow::compute::ResizableArrayData", ptr %this1, i32 0, i32 1
  call void @_ZN5arrow7compute26ColumnMetadataFromDataTypeERKSt10shared_ptrINS_8DataTypeEE(ptr sret(%"class.arrow::Result") align 8 %ref.tmp2, ptr noundef nonnull align 8 dereferenceable(16) %data_type_)
  %call = invoke i64 @_ZNO5arrow6ResultINS_7compute17KeyColumnMetadataEE10ValueOrDieEv(ptr noundef nonnull align 8 dereferenceable(16) %ref.tmp2)
          to label %invoke.cont unwind label %lpad

invoke.cont:                                      ; preds = %entry
  store i64 %call, ptr %ref.tmp, align 4
  call void @llvm.memcpy.p0.p0.i64(ptr align 4 %column_metadata, ptr align 4 %ref.tmp, i64 8, i1 false)
  call void @_ZN5arrow6ResultINS_7compute17KeyColumnMetadataEED2Ev(ptr noundef nonnull align 8 dereferenceable(16) %ref.tmp2) #11
  %num_rows_ = getelementptr inbounds %"class.arrow::compute::ResizableArrayData", ptr %this1, i32 0, i32 3
  %0 = load i32, ptr %num_rows_, align 8
  %conv = sext i32 %0 to i64
  %buffers_ = getelementptr inbounds %"class.arrow::compute::ResizableArrayData", ptr %this1, i32 0, i32 6
  %arrayidx = getelementptr inbounds [3 x %"class.std::shared_ptr.72"], ptr %buffers_, i64 0, i64 0
  %call3 = call noundef ptr @_ZNKSt19__shared_ptr_accessIN5arrow15ResizableBufferELN9__gnu_cxx12_Lock_policyE2ELb0ELb0EEptEv(ptr noundef nonnull align 1 dereferenceable(1) %arrayidx) #11
  %call4 = call noundef ptr @_ZN5arrow6Buffer12mutable_dataEv(ptr noundef nonnull align 8 dereferenceable(80) %call3)
  %buffers_5 = getelementptr inbounds %"class.arrow::compute::ResizableArrayData", ptr %this1, i32 0, i32 6
  %arrayidx6 = getelementptr inbounds [3 x %"class.std::shared_ptr.72"], ptr %buffers_5, i64 0, i64 1
  %call7 = call noundef ptr @_ZNKSt19__shared_ptr_accessIN5arrow15ResizableBufferELN9__gnu_cxx12_Lock_policyE2ELb0ELb0EEptEv(ptr noundef nonnull align 1 dereferenceable(1) %arrayidx6) #11
  %call8 = call noundef ptr @_ZN5arrow6Buffer12mutable_dataEv(ptr noundef nonnull align 8 dereferenceable(80) %call7)
  %buffers_9 = getelementptr inbounds %"class.arrow::compute::ResizableArrayData", ptr %this1, i32 0, i32 6
  %arrayidx10 = getelementptr inbounds [3 x %"class.std::shared_ptr.72"], ptr %buffers_9, i64 0, i64 2
  %call11 = call noundef ptr @_ZNKSt19__shared_ptr_accessIN5arrow15ResizableBufferELN9__gnu_cxx12_Lock_policyE2ELb0ELb0EEptEv(ptr noundef nonnull align 1 dereferenceable(1) %arrayidx10) #11
  %call12 = call noundef ptr @_ZN5arrow6Buffer12mutable_dataEv(ptr noundef nonnull align 8 dereferenceable(80) %call11)
  call void @_ZN5arrow7compute14KeyColumnArrayC1ERKNS0_17KeyColumnMetadataElPhS5_S5_ii(ptr noundef nonnull align 8 dereferenceable(72) %agg.result, ptr noundef nonnull align 4 dereferenceable(8) %column_metadata, i64 noundef %conv, ptr noundef %call4, ptr noundef %call8, ptr noundef %call12, i32 noundef 0, i32 noundef 0)
  ret void

lpad:                                             ; preds = %entry
  %1 = landingpad { ptr, i32 }
          cleanup
  %2 = extractvalue { ptr, i32 } %1, 0
  store ptr %2, ptr %exn.slot, align 8
  %3 = extractvalue { ptr, i32 } %1, 1
  store i32 %3, ptr %ehselector.slot, align 4
  call void @_ZN5arrow6ResultINS_7compute17KeyColumnMetadataEED2Ev(ptr noundef nonnull align 8 dereferenceable(16) %ref.tmp2) #11
  br label %eh.resume

eh.resume:                                        ; preds = %lpad
  %exn = load ptr, ptr %exn.slot, align 8
  %sel = load i32, ptr %ehselector.slot, align 4
  %lpad.val = insertvalue { ptr, i32 } poison, ptr %exn, 0
  %lpad.val13 = insertvalue { ptr, i32 } %lpad.val, i32 %sel, 1
  resume { ptr, i32 } %lpad.val13
}