; Function Attrs: mustprogress uwtable
define void @_ZNK5arrow7compute18ResizableArrayData12column_arrayEv(ptr noalias sret(%"class.arrow::compute::KeyColumnArray") align 8 %agg.result, ptr nocapture noundef nonnull readonly align 8 dereferenceable(96) %this) local_unnamed_addr #2 align 2 personality ptr @__gxx_personality_v0 {
entry:
  %column_metadata = alloca %"struct.arrow::compute::KeyColumnMetadata", align 8
  %ref.tmp2 = alloca %"class.arrow::Result", align 8
  %data_type_ = getelementptr inbounds i8, ptr %this, i64 8
  call void @_ZN5arrow7compute26ColumnMetadataFromDataTypeERKSt10shared_ptrINS_8DataTypeEE(ptr nonnull sret(%"class.arrow::Result") align 8 %ref.tmp2, ptr noundef nonnull align 8 dereferenceable(16) %data_type_)
  %0 = load ptr, ptr %ref.tmp2, align 8
  %cmp.i.i.i = icmp eq ptr %0, null
  br i1 %cmp.i.i.i, label %invoke.cont.thread, label %if.then.i

invoke.cont.thread:                               ; preds = %entry
  %storage_.i.i13 = getelementptr inbounds i8, ptr %ref.tmp2, i64 8
  %retval.sroa.0.0.copyload.i.i14 = load i64, ptr %storage_.i.i13, align 8
  store i64 %retval.sroa.0.0.copyload.i.i14, ptr %column_metadata, align 8
  br label %_ZN5arrow6ResultINS_7compute17KeyColumnMetadataEED2Ev.exit

if.then.i:                                        ; preds = %entry
  invoke void @_ZN5arrow8internal17InvalidValueOrDieERKNS_6StatusE(ptr noundef nonnull align 8 dereferenceable(8) %ref.tmp2)
          to label %invoke.cont unwind label %lpad

invoke.cont:                                      ; preds = %if.then.i
  %.pr = load ptr, ptr %ref.tmp2, align 8
  %storage_.i.i = getelementptr inbounds i8, ptr %ref.tmp2, i64 8
  %retval.sroa.0.0.copyload.i.i = load i64, ptr %storage_.i.i, align 8
  store i64 %retval.sroa.0.0.copyload.i.i, ptr %column_metadata, align 8
  %cmp.not.i.i = icmp eq ptr %.pr, null
  br i1 %cmp.not.i.i, label %_ZN5arrow6ResultINS_7compute17KeyColumnMetadataEED2Ev.exit, label %delete.notnull.i.i.i

delete.notnull.i.i.i:                             ; preds = %invoke.cont
  %_M_refcount.i.i.i.i.i.i = getelementptr inbounds i8, ptr %.pr, i64 48
  %1 = load ptr, ptr %_M_refcount.i.i.i.i.i.i, align 8
  %cmp.not.i.i.i.i.i.i.i = icmp eq ptr %1, null
  br i1 %cmp.not.i.i.i.i.i.i.i, label %_ZN5arrow6Status11DeleteStateEv.exit.i.i, label %if.then.i.i.i.i.i.i.i

if.then.i.i.i.i.i.i.i:                            ; preds = %delete.notnull.i.i.i
  %_M_use_count.i.i.i.i.i.i.i.i = getelementptr inbounds i8, ptr %1, i64 8
  %2 = load atomic i64, ptr %_M_use_count.i.i.i.i.i.i.i.i acquire, align 8
  %cmp.i.i.i.i.i.i.i.i = icmp eq i64 %2, 4294967297
  %3 = trunc i64 %2 to i32
  br i1 %cmp.i.i.i.i.i.i.i.i, label %if.then.i.i.i.i.i.i.i.i, label %if.end.i.i.i.i.i.i.i.i

if.then.i.i.i.i.i.i.i.i:                          ; preds = %if.then.i.i.i.i.i.i.i
  store i32 0, ptr %_M_use_count.i.i.i.i.i.i.i.i, align 8
  %_M_weak_count.i.i.i.i.i.i.i.i = getelementptr inbounds i8, ptr %1, i64 12
  store i32 0, ptr %_M_weak_count.i.i.i.i.i.i.i.i, align 4
  %vtable.i.i.i.i.i.i.i.i = load ptr, ptr %1, align 8
  %vfn.i.i.i.i.i.i.i.i = getelementptr inbounds i8, ptr %vtable.i.i.i.i.i.i.i.i, i64 16
  %4 = load ptr, ptr %vfn.i.i.i.i.i.i.i.i, align 8
  call void %4(ptr noundef nonnull align 8 dereferenceable(16) %1) #16
  br label %if.end8.sink.split.i.i.i.i.i.i.i.i

if.end.i.i.i.i.i.i.i.i:                           ; preds = %if.then.i.i.i.i.i.i.i
  %5 = load i8, ptr @__libc_single_threaded, align 1
  %tobool.i.not.i.i.i.i.i.i.i.i = icmp eq i8 %5, 0
  br i1 %tobool.i.not.i.i.i.i.i.i.i.i, label %if.else.i.i.i.i.i.i.i.i.i, label %if.then.i.i.i.i.i.i.i.i.i

if.then.i.i.i.i.i.i.i.i.i:                        ; preds = %if.end.i.i.i.i.i.i.i.i
  %add.i.i.i.i.i.i.i.i.i = add nsw i32 %3, -1
  store i32 %add.i.i.i.i.i.i.i.i.i, ptr %_M_use_count.i.i.i.i.i.i.i.i, align 4
  br label %_ZN9__gnu_cxx27__exchange_and_add_dispatchEPii.exit.i.i.i.i.i.i.i.i

if.else.i.i.i.i.i.i.i.i.i:                        ; preds = %if.end.i.i.i.i.i.i.i.i
  %6 = atomicrmw volatile add ptr %_M_use_count.i.i.i.i.i.i.i.i, i32 -1 acq_rel, align 4
  br label %_ZN9__gnu_cxx27__exchange_and_add_dispatchEPii.exit.i.i.i.i.i.i.i.i

_ZN9__gnu_cxx27__exchange_and_add_dispatchEPii.exit.i.i.i.i.i.i.i.i: ; preds = %if.else.i.i.i.i.i.i.i.i.i, %if.then.i.i.i.i.i.i.i.i.i
  %retval.i.0.i.i.i.i.i.i.i.i = phi i32 [ %3, %if.then.i.i.i.i.i.i.i.i.i ], [ %6, %if.else.i.i.i.i.i.i.i.i.i ]
  %cmp6.i.i.i.i.i.i.i.i = icmp eq i32 %retval.i.0.i.i.i.i.i.i.i.i, 1
  br i1 %cmp6.i.i.i.i.i.i.i.i, label %if.then7.i.i.i.i.i.i.i.i, label %_ZN5arrow6Status11DeleteStateEv.exit.i.i

if.then7.i.i.i.i.i.i.i.i:                         ; preds = %_ZN9__gnu_cxx27__exchange_and_add_dispatchEPii.exit.i.i.i.i.i.i.i.i
  %vtable.i.i.i.i.i.i.i.i.i.i = load ptr, ptr %1, align 8
  %vfn.i.i.i.i.i.i.i.i.i.i = getelementptr inbounds i8, ptr %vtable.i.i.i.i.i.i.i.i.i.i, i64 16
  %7 = load ptr, ptr %vfn.i.i.i.i.i.i.i.i.i.i, align 8
  call void %7(ptr noundef nonnull align 8 dereferenceable(16) %1) #16
  %_M_weak_count.i.i.i.i.i.i.i.i.i.i = getelementptr inbounds i8, ptr %1, i64 12
  %8 = load i8, ptr @__libc_single_threaded, align 1
  %tobool.i.not.i.i.i.i.i.i.i.i.i.i = icmp eq i8 %8, 0
  br i1 %tobool.i.not.i.i.i.i.i.i.i.i.i.i, label %if.else.i.i.i.i.i.i.i.i.i.i.i, label %if.then.i.i.i.i.i.i.i.i.i.i.i

if.then.i.i.i.i.i.i.i.i.i.i.i:                    ; preds = %if.then7.i.i.i.i.i.i.i.i
  %9 = load i32, ptr %_M_weak_count.i.i.i.i.i.i.i.i.i.i, align 4
  %add.i.i.i.i.i.i.i.i.i.i.i = add nsw i32 %9, -1
  store i32 %add.i.i.i.i.i.i.i.i.i.i.i, ptr %_M_weak_count.i.i.i.i.i.i.i.i.i.i, align 4
  br label %_ZN9__gnu_cxx27__exchange_and_add_dispatchEPii.exit.i.i.i.i.i.i.i.i.i.i

if.else.i.i.i.i.i.i.i.i.i.i.i:                    ; preds = %if.then7.i.i.i.i.i.i.i.i
  %10 = atomicrmw volatile add ptr %_M_weak_count.i.i.i.i.i.i.i.i.i.i, i32 -1 acq_rel, align 4
  br label %_ZN9__gnu_cxx27__exchange_and_add_dispatchEPii.exit.i.i.i.i.i.i.i.i.i.i

_ZN9__gnu_cxx27__exchange_and_add_dispatchEPii.exit.i.i.i.i.i.i.i.i.i.i: ; preds = %if.else.i.i.i.i.i.i.i.i.i.i.i, %if.then.i.i.i.i.i.i.i.i.i.i.i
  %retval.i.0.i.i.i.i.i.i.i.i.i.i = phi i32 [ %9, %if.then.i.i.i.i.i.i.i.i.i.i.i ], [ %10, %if.else.i.i.i.i.i.i.i.i.i.i.i ]
  %cmp.i.i.i.i.i.i.i.i.i.i = icmp eq i32 %retval.i.0.i.i.i.i.i.i.i.i.i.i, 1
  br i1 %cmp.i.i.i.i.i.i.i.i.i.i, label %if.end8.sink.split.i.i.i.i.i.i.i.i, label %_ZN5arrow6Status11DeleteStateEv.exit.i.i

if.end8.sink.split.i.i.i.i.i.i.i.i:               ; preds = %_ZN9__gnu_cxx27__exchange_and_add_dispatchEPii.exit.i.i.i.i.i.i.i.i.i.i, %if.then.i.i.i.i.i.i.i.i
  %vtable2.i.i.i.i.i.i.i.i.i.i = load ptr, ptr %1, align 8
  %vfn3.i.i.i.i.i.i.i.i.i.i = getelementptr inbounds i8, ptr %vtable2.i.i.i.i.i.i.i.i.i.i, i64 24
  %11 = load ptr, ptr %vfn3.i.i.i.i.i.i.i.i.i.i, align 8
  call void %11(ptr noundef nonnull align 8 dereferenceable(16) %1) #16
  br label %_ZN5arrow6Status11DeleteStateEv.exit.i.i

_ZN5arrow6Status11DeleteStateEv.exit.i.i:         ; preds = %if.end8.sink.split.i.i.i.i.i.i.i.i, %_ZN9__gnu_cxx27__exchange_and_add_dispatchEPii.exit.i.i.i.i.i.i.i.i.i.i, %_ZN9__gnu_cxx27__exchange_and_add_dispatchEPii.exit.i.i.i.i.i.i.i.i, %delete.notnull.i.i.i
  %msg.i.i.i.i = getelementptr inbounds i8, ptr %.pr, i64 8
  call void @_ZNSt7__cxx1112basic_stringIcSt11char_traitsIcESaIcEED1Ev(ptr noundef nonnull align 8 dereferenceable(32) %msg.i.i.i.i) #16
  call void @_ZdlPv(ptr noundef nonnull %.pr) #19
  store ptr null, ptr %ref.tmp2, align 8
  br label %_ZN5arrow6ResultINS_7compute17KeyColumnMetadataEED2Ev.exit

_ZN5arrow6ResultINS_7compute17KeyColumnMetadataEED2Ev.exit: ; preds = %invoke.cont.thread, %invoke.cont, %_ZN5arrow6Status11DeleteStateEv.exit.i.i
  %num_rows_ = getelementptr inbounds i8, ptr %this, i64 32
  %12 = load i32, ptr %num_rows_, align 8
  %conv = sext i32 %12 to i64
  %buffers_ = getelementptr inbounds i8, ptr %this, i64 48
  %13 = load ptr, ptr %buffers_, align 8
  %is_mutable_.i = getelementptr inbounds i8, ptr %13, i64 8
  %14 = load <2 x i8>, ptr %is_mutable_.i, align 8
  %15 = trunc <2 x i8> %14 to <2 x i1>
  %16 = extractelement <2 x i1> %15, i64 0
  %17 = extractelement <2 x i1> %15, i64 1
  %18 = select i1 %17, i1 %16, i1 false
  %data_.i = getelementptr inbounds i8, ptr %13, i64 16
  %19 = load ptr, ptr %data_.i, align 8
  %cond.i = select i1 %18, ptr %19, ptr null
  %arrayidx6 = getelementptr inbounds i8, ptr %this, i64 64
  %20 = load ptr, ptr %arrayidx6, align 8
  %is_cpu_.i1 = getelementptr inbounds i8, ptr %20, i64 9
  %21 = load i8, ptr %is_cpu_.i1, align 1
  %22 = and i8 %21, 1
  %tobool.not.i2 = icmp ne i8 %22, 0
  %is_mutable_.i3 = getelementptr inbounds i8, ptr %20, i64 8
  %23 = load i8, ptr %is_mutable_.i3, align 8
  %24 = and i8 %23, 1
  %tobool2.i4 = icmp ne i8 %24, 0
  %25 = select i1 %tobool.not.i2, i1 %tobool2.i4, i1 false
  %data_.i5 = getelementptr inbounds i8, ptr %20, i64 16
  %26 = load ptr, ptr %data_.i5, align 8
  %cond.i6 = select i1 %25, ptr %26, ptr null
  %arrayidx10 = getelementptr inbounds i8, ptr %this, i64 80
  %27 = load ptr, ptr %arrayidx10, align 8
  %is_cpu_.i7 = getelementptr inbounds i8, ptr %27, i64 9
  %28 = load i8, ptr %is_cpu_.i7, align 1
  %29 = and i8 %28, 1
  %tobool.not.i8 = icmp ne i8 %29, 0
  %is_mutable_.i9 = getelementptr inbounds i8, ptr %27, i64 8
  %30 = load i8, ptr %is_mutable_.i9, align 8
  %31 = and i8 %30, 1
  %tobool2.i10 = icmp ne i8 %31, 0
  %32 = select i1 %tobool.not.i8, i1 %tobool2.i10, i1 false
  %data_.i11 = getelementptr inbounds i8, ptr %27, i64 16
  %33 = load ptr, ptr %data_.i11, align 8
  %cond.i12 = select i1 %32, ptr %33, ptr null
  call void @_ZN5arrow7compute14KeyColumnArrayC1ERKNS0_17KeyColumnMetadataElPhS5_S5_ii(ptr noundef nonnull align 8 dereferenceable(72) %agg.result, ptr noundef nonnull align 4 dereferenceable(8) %column_metadata, i64 noundef %conv, ptr noundef %cond.i, ptr noundef %cond.i6, ptr noundef %cond.i12, i32 noundef 0, i32 noundef 0)
  ret void

lpad:                                             ; preds = %if.then.i
  %34 = landingpad { ptr, i32 }
          cleanup
  call void @_ZN5arrow6ResultINS_7compute17KeyColumnMetadataEED2Ev(ptr noundef nonnull align 8 dereferenceable(16) %ref.tmp2) #16
  resume { ptr, i32 } %34
}